target datalayout = "e-m:e-p270:32:32-p271:32:32-p272:64:64-i64:64-i128:128-f80:128-n8:16:32:64-S128"
target triple = "x86_64-pc-linux-gnu"

@.str = private unnamed_addr constant [62 x i8] c"../openssl/providers/implementations/ciphers/cipher_aes_ocb.c\00", align 1
@__func__.aes_ocb_block_update_internal = private unnamed_addr constant [30 x i8] c"aes_ocb_block_update_internal\00", align 1

; Function Attrs: nounwind uwtable
define internal i32 @aes_ocb_block_update_internal(ptr noundef %0, ptr noundef %1, ptr noundef %2, ptr noundef %3, ptr noundef %4, i64 noundef %5, ptr noundef %6, i64 noundef %7, ptr noundef %8) #0 {
  %10 = alloca i32, align 4
  %11 = alloca ptr, align 8
  %12 = alloca ptr, align 8
  %13 = alloca ptr, align 8
  %14 = alloca ptr, align 8
  %15 = alloca ptr, align 8
  %16 = alloca i64, align 8
  %17 = alloca ptr, align 8
  %18 = alloca i64, align 8
  %19 = alloca ptr, align 8
  %20 = alloca i64, align 8
  %21 = alloca i64, align 8
  %22 = alloca i32, align 4
  store ptr %0, ptr %11, align 8, !tbaa !15
  store ptr %1, ptr %12, align 8, !tbaa !7
  store ptr %2, ptr %13, align 8, !tbaa !13
  store ptr %3, ptr %14, align 8, !tbaa !7
  store ptr %4, ptr %15, align 8, !tbaa !13
  store i64 %5, ptr %16, align 8, !tbaa !9
  store ptr %6, ptr %17, align 8, !tbaa !7
  store i64 %7, ptr %18, align 8, !tbaa !9
  store ptr %8, ptr %19, align 8, !tbaa !3
  call void @llvm.lifetime.start.p0(i64 8, ptr %20) #5
  call void @llvm.lifetime.start.p0(i64 8, ptr %21) #5
  store i64 0, ptr %21, align 8, !tbaa !9
  %23 = load ptr, ptr %13, align 8, !tbaa !13
  %24 = load i64, ptr %23, align 8, !tbaa !9
  %25 = icmp ne i64 %24, 0
  br i1 %25, label %26, label %30

26:                                               ; preds = %9
  %27 = load ptr, ptr %12, align 8, !tbaa !7
  %28 = load ptr, ptr %13, align 8, !tbaa !13
  %29 = call i64 @ossl_cipher_fillblock(ptr noundef %27, ptr noundef %28, i64 noundef 16, ptr noundef %17, ptr noundef %18)
  store i64 %29, ptr %20, align 8, !tbaa !9
  br label %33

30:                                               ; preds = %9
  %31 = load i64, ptr %18, align 8, !tbaa !9
  %32 = and i64 %31, -16
  store i64 %32, ptr %20, align 8, !tbaa !9
  br label %33

33:                                               ; preds = %30, %26
  %34 = load ptr, ptr %13, align 8, !tbaa !13
  %35 = load i64, ptr %34, align 8, !tbaa !9
  %36 = icmp eq i64 %35, 16
  br i1 %36, label %37, label %57

37:                                               ; preds = %33
  %38 = load i64, ptr %16, align 8, !tbaa !9
  %39 = icmp ult i64 %38, 16
  br i1 %39, label %40, label %41

40:                                               ; preds = %37
  call void @ERR_new()
  call void @ERR_set_debug(ptr noundef @.str, i32 noundef 175, ptr noundef @__func__.aes_ocb_block_update_internal)
  call void (i32, i32, ptr, ...) @ERR_set_error(i32 noundef 57, i32 noundef 106, ptr noundef null)
  store i32 0, ptr %10, align 4
  store i32 1, ptr %22, align 4
  br label %99

41:                                               ; preds = %37
  %42 = load ptr, ptr %19, align 8, !tbaa !3
  %43 = load ptr, ptr %11, align 8, !tbaa !15
  %44 = load ptr, ptr %12, align 8, !tbaa !7
  %45 = load ptr, ptr %14, align 8, !tbaa !7
  %46 = call i32 %42(ptr noundef %43, ptr noundef %44, ptr noundef %45, i64 noundef 16)
  %47 = icmp ne i32 %46, 0
  br i1 %47, label %49, label %48

48:                                               ; preds = %41
  call void @ERR_new()
  call void @ERR_set_debug(ptr noundef @.str, i32 noundef 179, ptr noundef @__func__.aes_ocb_block_update_internal)
  call void (i32, i32, ptr, ...) @ERR_set_error(i32 noundef 57, i32 noundef 102, ptr noundef null)
  store i32 0, ptr %10, align 4
  store i32 1, ptr %22, align 4
  br label %99

49:                                               ; preds = %41
  %50 = load ptr, ptr %13, align 8, !tbaa !13
  store i64 0, ptr %50, align 8, !tbaa !9
  store i64 16, ptr %21, align 8, !tbaa !9
  %51 = load ptr, ptr %14, align 8, !tbaa !7
  %52 = icmp ne ptr %51, null
  br i1 %52, label %53, label %56

53:                                               ; preds = %49
  %54 = load ptr, ptr %14, align 8, !tbaa !7
  %55 = getelementptr inbounds i8, ptr %54, i64 16
  store ptr %55, ptr %14, align 8, !tbaa !7
  br label %56

56:                                               ; preds = %53, %49
  br label %57

57:                                               ; preds = %56, %33
  %58 = load i64, ptr %20, align 8, !tbaa !9
  %59 = icmp ugt i64 %58, 0
  br i1 %59, label %60, label %84

60:                                               ; preds = %57
  %61 = load i64, ptr %20, align 8, !tbaa !9
  %62 = load i64, ptr %21, align 8, !tbaa !9
  %63 = add i64 %62, %61
  store i64 %63, ptr %21, align 8, !tbaa !9
  %64 = load i64, ptr %16, align 8, !tbaa !9
  %65 = load i64, ptr %21, align 8, !tbaa !9
  %66 = icmp ult i64 %64, %65
  br i1 %66, label %67, label %68

67:                                               ; preds = %60
  call void @ERR_new()
  call void @ERR_set_debug(ptr noundef @.str, i32 noundef 190, ptr noundef @__func__.aes_ocb_block_update_internal)
  call void (i32, i32, ptr, ...) @ERR_set_error(i32 noundef 57, i32 noundef 106, ptr noundef null)
  store i32 0, ptr %10, align 4
  store i32 1, ptr %22, align 4
  br label %99

68:                                               ; preds = %60
  %69 = load ptr, ptr %19, align 8, !tbaa !3
  %70 = load ptr, ptr %11, align 8, !tbaa !15
  %71 = load ptr, ptr %17, align 8, !tbaa !7
  %72 = load ptr, ptr %14, align 8, !tbaa !7
  %73 = load i64, ptr %20, align 8, !tbaa !9
  %74 = call i32 %69(ptr noundef %70, ptr noundef %71, ptr noundef %72, i64 noundef %73)
  %75 = icmp ne i32 %74, 0
  br i1 %75, label %77, label %76

76:                                               ; preds = %68
  call void @ERR_new()
  call void @ERR_set_debug(ptr noundef @.str, i32 noundef 194, ptr noundef @__func__.aes_ocb_block_update_internal)
  call void (i32, i32, ptr, ...) @ERR_set_error(i32 noundef 57, i32 noundef 102, ptr noundef null)
  store i32 0, ptr %10, align 4
  store i32 1, ptr %22, align 4
  br label %99

77:                                               ; preds = %68
  %78 = load i64, ptr %20, align 8, !tbaa !9
  %79 = load ptr, ptr %17, align 8, !tbaa !7
  %80 = getelementptr inbounds nuw i8, ptr %79, i64 %78
  store ptr %80, ptr %17, align 8, !tbaa !7
  %81 = load i64, ptr %20, align 8, !tbaa !9
  %82 = load i64, ptr %18, align 8, !tbaa !9
  %83 = sub i64 %82, %81
  store i64 %83, ptr %18, align 8, !tbaa !9
  br label %84

84:                                               ; preds = %77, %57
  %85 = load i64, ptr %18, align 8, !tbaa !9
  %86 = icmp ne i64 %85, 0
  br i1 %86, label %87, label %93

87:                                               ; preds = %84
  %88 = load ptr, ptr %12, align 8, !tbaa !7
  %89 = load ptr, ptr %13, align 8, !tbaa !13
  %90 = call i32 @ossl_cipher_trailingdata(ptr noundef %88, ptr noundef %89, i64 noundef 16, ptr noundef %17, ptr noundef %18)
  %91 = icmp ne i32 %90, 0
  br i1 %91, label %93, label %92

92:                                               ; preds = %87
  store i32 0, ptr %10, align 4
  store i32 1, ptr %22, align 4
  br label %99

93:                                               ; preds = %87, %84
  %94 = load i64, ptr %21, align 8, !tbaa !9
  %95 = load ptr, ptr %15, align 8, !tbaa !13
  store i64 %94, ptr %95, align 8, !tbaa !9
  %96 = load i64, ptr %18, align 8, !tbaa !9
  %97 = icmp eq i64 %96, 0
  %98 = zext i1 %97 to i32
  store i32 %98, ptr %10, align 4
  store i32 1, ptr %22, align 4
  br label %99

99:                                               ; preds = %93, %92, %76, %67, %48, %40
  call void @llvm.lifetime.end.p0(i64 8, ptr %21) #5
  call void @llvm.lifetime.end.p0(i64 8, ptr %20) #5
  %100 = load i32, ptr %10, align 4
  ret i32 %100
}