; Function Attrs: nounwind uwtable
define internal fastcc range(i32 0, 2) i32 @aes_ocb_block_update_internal(ptr noundef %0, ptr noundef %1, ptr noundef %2, ptr noundef %3, ptr noundef writeonly captures(none) %4, i64 noundef %5, ptr noundef %6, i64 noundef range(i64 1, 0) %7, ptr noundef readonly captures(none) %8) unnamed_addr #0 {
  %10 = alloca ptr, align 8
  %11 = alloca i64, align 8
  store ptr %6, ptr %10, align 8, !tbaa !26
  store i64 %7, ptr %11, align 8, !tbaa !19
  %12 = load i64, ptr %2, align 8, !tbaa !19
  %.not = icmp eq i64 %12, 0
  br i1 %.not, label %.thread, label %14

.thread:                                          ; preds = %9
  %13 = and i64 %7, -16
  br label %25

14:                                               ; preds = %9
  %15 = call i64 @ossl_cipher_fillblock(ptr noundef %1, ptr noundef nonnull %2, i64 noundef 16, ptr noundef nonnull %10, ptr noundef nonnull %11) #7
  %.pr = load i64, ptr %2, align 8, !tbaa !19
  %16 = icmp eq i64 %.pr, 16
  br i1 %16, label %17, label %25

17:                                               ; preds = %14
  %18 = icmp ult i64 %5, 16
  br i1 %18, label %19, label %20

19:                                               ; preds = %17
  call void @ERR_new() #7
  call void @ERR_set_debug(ptr noundef nonnull @.str, i32 noundef 175, ptr noundef nonnull @__func__.aes_ocb_block_update_internal) #7
  call void (i32, i32, ptr, ...) @ERR_set_error(i32 noundef 57, i32 noundef 106, ptr noundef null) #7
  br label %47

20:                                               ; preds = %17
  %21 = call i32 %8(ptr noundef %0, ptr noundef %1, ptr noundef %3, i64 noundef 16) #7, !callees !39
  %.not33 = icmp eq i32 %21, 0
  br i1 %.not33, label %22, label %23

22:                                               ; preds = %20
  call void @ERR_new() #7
  call void @ERR_set_debug(ptr noundef nonnull @.str, i32 noundef 179, ptr noundef nonnull @__func__.aes_ocb_block_update_internal) #7
  call void (i32, i32, ptr, ...) @ERR_set_error(i32 noundef 57, i32 noundef 102, ptr noundef null) #7
  br label %47

23:                                               ; preds = %20
  store i64 0, ptr %2, align 8, !tbaa !19
  %.not34 = icmp eq ptr %3, null
  %24 = getelementptr inbounds nuw i8, ptr %3, i64 16
  %spec.select = select i1 %.not34, ptr null, ptr %24
  br label %25

25:                                               ; preds = %.thread, %23, %14
  %.02740 = phi i64 [ %15, %14 ], [ %15, %23 ], [ %13, %.thread ]
  %.029 = phi ptr [ %3, %14 ], [ %spec.select, %23 ], [ %3, %.thread ]
  %.0 = phi i64 [ 0, %14 ], [ 16, %23 ], [ 0, %.thread ]
  %.not35 = icmp eq i64 %.02740, 0
  br i1 %.not35, label %thread-pre-split, label %26

26:                                               ; preds = %25
  %27 = add i64 %.0, %.02740
  %28 = icmp ult i64 %5, %27
  br i1 %28, label %29, label %30

29:                                               ; preds = %26
  call void @ERR_new() #7
  call void @ERR_set_debug(ptr noundef nonnull @.str, i32 noundef 190, ptr noundef nonnull @__func__.aes_ocb_block_update_internal) #7
  call void (i32, i32, ptr, ...) @ERR_set_error(i32 noundef 57, i32 noundef 106, ptr noundef null) #7
  br label %47

30:                                               ; preds = %26
  %31 = load ptr, ptr %10, align 8, !tbaa !26
  %32 = call i32 %8(ptr noundef %0, ptr noundef %31, ptr noundef %.029, i64 noundef %.02740) #7, !callees !39
  %.not36 = icmp eq i32 %32, 0
  br i1 %.not36, label %33, label %34

33:                                               ; preds = %30
  call void @ERR_new() #7
  call void @ERR_set_debug(ptr noundef nonnull @.str, i32 noundef 194, ptr noundef nonnull @__func__.aes_ocb_block_update_internal) #7
  call void (i32, i32, ptr, ...) @ERR_set_error(i32 noundef 57, i32 noundef 102, ptr noundef null) #7
  br label %47

34:                                               ; preds = %30
  %35 = load ptr, ptr %10, align 8, !tbaa !26
  %36 = getelementptr inbounds nuw i8, ptr %35, i64 %.02740
  store ptr %36, ptr %10, align 8, !tbaa !26
  %37 = load i64, ptr %11, align 8, !tbaa !19
  %38 = sub i64 %37, %.02740
  store i64 %38, ptr %11, align 8, !tbaa !19
  br label %39

thread-pre-split:                                 ; preds = %25
  %.pr41 = load i64, ptr %11, align 8, !tbaa !19
  br label %39

39:                                               ; preds = %thread-pre-split, %34
  %40 = phi i64 [ %.pr41, %thread-pre-split ], [ %38, %34 ]
  %.1 = phi i64 [ %.0, %thread-pre-split ], [ %27, %34 ]
  %.not37 = icmp eq i64 %40, 0
  br i1 %.not37, label %45, label %41

41:                                               ; preds = %39
  %42 = call i32 @ossl_cipher_trailingdata(ptr noundef %1, ptr noundef nonnull %2, i64 noundef 16, ptr noundef nonnull %10, ptr noundef nonnull %11) #7
  %.not38 = icmp eq i32 %42, 0
  br i1 %.not38, label %47, label %._crit_edge

._crit_edge:                                      ; preds = %41
  %.pre = load i64, ptr %11, align 8, !tbaa !19
  %43 = icmp eq i64 %.pre, 0
  %44 = zext i1 %43 to i32
  br label %45

45:                                               ; preds = %._crit_edge, %39
  %46 = phi i32 [ %44, %._crit_edge ], [ 1, %39 ]
  store i64 %.1, ptr %4, align 8, !tbaa !19
  br label %47

47:                                               ; preds = %41, %45, %33, %29, %22, %19
  %.028 = phi i32 [ 0, %19 ], [ 0, %29 ], [ %46, %45 ], [ 0, %33 ], [ 0, %22 ], [ 0, %41 ]
  ret i32 %.028
}